target datalayout = "e-m:e-p270:32:32-p271:32:32-p272:64:64-i64:64-i128:128-f80:128-n8:16:32:64-S128"
target triple = "x86_64-pc-linux-gnu"

%struct.PNGDSPContext = type { ptr, ptr }
%struct.AVCodecContext = type { ptr, i32, i32, ptr, i32, i32, ptr, ptr, ptr, i64, i32, i32, ptr, i32, %struct.AVRational, %struct.AVRational, %struct.AVRational, i32, i32, i32, i32, i32, %struct.AVRational, i32, i32, i32, i32, i32, i32, i32, i32, i32, i32, i32, ptr, ptr, i32, float, float, float, float, float, float, float, float, float, i32, i32, i32, i32, i32, i32, i32, i32, i32, i32, i32, i32, ptr, ptr, ptr, i32, i32, i32, i32, i32, i32, i32, i32, i32, i32, %struct.AVChannelLayout, i32, i32, i32, i32, i32, i32, i32, i32, ptr, i32, i32, i32, float, float, i32, i32, i32, i32, i32, ptr, i64, i64, float, float, i32, i32, ptr, ptr, i32, i32, i32, i32, i32, ptr, ptr, ptr, ptr, i32, i32, [8 x i64], i32, i32, i32, i32, i32, i32, i32, ptr, ptr, i32, i32, i32, i32, i32, i32, i32, i32, i32, i32, ptr, ptr, i32, i32, ptr, ptr, ptr, ptr, i32, i32, i64, i32, i32, i64, ptr, i64, ptr, i32, ptr, i32 }
%struct.AVRational = type { i32, i32 }
%struct.AVChannelLayout = type { i32, i32, %union.anon.0, ptr }
%union.anon.0 = type { i64 }
%struct.PNGDecContext = type { %struct.PNGDSPContext, ptr, %struct.GetByteContext, %struct.ProgressFrame, %struct.ProgressFrame, ptr, [82 x i8], ptr, i64, i32, i32, [2 x i32], [3 x [2 x i32]], i32, i32, i32, i32, i32, i32, i32, i32, i32, i32, [3 x [2 x i16]], [2 x i16], i32, i32, i32, i32, i32, i32, i32, i32, i32, i32, i8, i8, i32, i32, i32, i32, i32, i32, i32, i32, i32, [6 x i8], i32, [256 x i32], ptr, ptr, i32, ptr, i32, ptr, i32, i32, i32, i32, i32, i32, %struct.FFZStream }
%struct.GetByteContext = type { ptr, ptr, ptr }
%struct.ProgressFrame = type { ptr, ptr }
%struct.FFZStream = type { %struct.z_stream_s, i32 }
%struct.z_stream_s = type { ptr, i32, i64, ptr, i32, i64, ptr, ptr, ptr, ptr, ptr, i32, i64, i64 }

; Function Attrs: cold nounwind optsize uwtable
define internal i32 @png_dec_end(ptr noundef %0) #4 {
  %2 = alloca ptr, align 8
  %3 = alloca ptr, align 8
  store ptr %0, ptr %2, align 8, !tbaa !33
  call void @llvm.lifetime.start.p0(i64 8, ptr %3) #13
  %4 = load ptr, ptr %2, align 8, !tbaa !33
  %5 = getelementptr inbounds nuw %struct.AVCodecContext, ptr %4, i32 0, i32 6
  %6 = load ptr, ptr %5, align 8, !tbaa !35
  store ptr %6, ptr %3, align 8, !tbaa !53
  %7 = load ptr, ptr %3, align 8, !tbaa !53
  %8 = getelementptr inbounds nuw %struct.PNGDecContext, ptr %7, i32 0, i32 3
  call void @ff_progress_frame_unref(ptr noundef %8)
  %9 = load ptr, ptr %3, align 8, !tbaa !53
  %10 = getelementptr inbounds nuw %struct.PNGDecContext, ptr %9, i32 0, i32 4
  call void @ff_progress_frame_unref(ptr noundef %10)
  %11 = load ptr, ptr %3, align 8, !tbaa !53
  %12 = getelementptr inbounds nuw %struct.PNGDecContext, ptr %11, i32 0, i32 54
  call void @av_freep(ptr noundef %12)
  %13 = load ptr, ptr %3, align 8, !tbaa !53
  %14 = getelementptr inbounds nuw %struct.PNGDecContext, ptr %13, i32 0, i32 55
  store i32 0, ptr %14, align 8, !tbaa !92
  %15 = load ptr, ptr %3, align 8, !tbaa !53
  %16 = getelementptr inbounds nuw %struct.PNGDecContext, ptr %15, i32 0, i32 50
  call void @av_freep(ptr noundef %16)
  %17 = load ptr, ptr %3, align 8, !tbaa !53
  %18 = getelementptr inbounds nuw %struct.PNGDecContext, ptr %17, i32 0, i32 51
  store i32 0, ptr %18, align 8, !tbaa !93
  %19 = load ptr, ptr %3, align 8, !tbaa !53
  %20 = getelementptr inbounds nuw %struct.PNGDecContext, ptr %19, i32 0, i32 52
  call void @av_freep(ptr noundef %20)
  %21 = load ptr, ptr %3, align 8, !tbaa !53
  %22 = getelementptr inbounds nuw %struct.PNGDecContext, ptr %21, i32 0, i32 53
  store i32 0, ptr %22, align 8, !tbaa !94
  %23 = load ptr, ptr %3, align 8, !tbaa !53
  %24 = getelementptr inbounds nuw %struct.PNGDecContext, ptr %23, i32 0, i32 7
  call void @av_freep(ptr noundef %24)
  %25 = load ptr, ptr %3, align 8, !tbaa !53
  %26 = getelementptr inbounds nuw %struct.PNGDecContext, ptr %25, i32 0, i32 5
  call void @av_dict_free(ptr noundef %26)
  %27 = load ptr, ptr %3, align 8, !tbaa !53
  %28 = getelementptr inbounds nuw %struct.PNGDecContext, ptr %27, i32 0, i32 61
  call void @ff_inflate_end(ptr noundef %28)
  call void @llvm.lifetime.end.p0(i64 8, ptr %3) #13
  ret i32 0
}