; Function Attrs: cold nounwind optsize uwtable
define internal noundef i32 @png_dec_end(ptr noundef readonly captures(none) %0) #5 {
  %2 = getelementptr inbounds nuw i8, ptr %0, i64 32
  %3 = load ptr, ptr %2, align 8, !tbaa !28
  %4 = getelementptr inbounds nuw i8, ptr %3, i64 48
  tail call void @ff_progress_frame_unref(ptr noundef nonnull %4) #13
  %5 = getelementptr inbounds nuw i8, ptr %3, i64 64
  tail call void @ff_progress_frame_unref(ptr noundef nonnull %5) #13
  %6 = getelementptr inbounds nuw i8, ptr %3, i64 1448
  tail call void @av_freep(ptr noundef nonnull %6) #13
  %7 = getelementptr inbounds nuw i8, ptr %3, i64 1456
  store i32 0, ptr %7, align 8, !tbaa !96
  %8 = getelementptr inbounds nuw i8, ptr %3, i64 1416
  tail call void @av_freep(ptr noundef nonnull %8) #13
  %9 = getelementptr inbounds nuw i8, ptr %3, i64 1424
  store i32 0, ptr %9, align 8, !tbaa !97
  %10 = getelementptr inbounds nuw i8, ptr %3, i64 1432
  tail call void @av_freep(ptr noundef nonnull %10) #13
  %11 = getelementptr inbounds nuw i8, ptr %3, i64 1440
  store i32 0, ptr %11, align 8, !tbaa !98
  %12 = getelementptr inbounds nuw i8, ptr %3, i64 176
  tail call void @av_freep(ptr noundef nonnull %12) #13
  %13 = getelementptr inbounds nuw i8, ptr %3, i64 80
  tail call void @av_dict_free(ptr noundef nonnull %13) #13
  %14 = getelementptr inbounds nuw i8, ptr %3, i64 1480
  tail call void @ff_inflate_end(ptr noundef nonnull %14) #13
  ret i32 0
}